; Function Attrs: mustprogress uwtable
define hidden void @_ZN6google8protobuf2io16FileOutputStreamC2Eii(ptr noundef nonnull align 8 dereferenceable(72) initializes((0, 8)) %0, i32 noundef %1, i32 %2) unnamed_addr #3 align 2 personality ptr @__gxx_personality_v0 {
  store ptr getelementptr inbounds nuw inrange(-16, 56) (i8, ptr @_ZTVN6google8protobuf2io16FileOutputStreamE, i64 16), ptr %0, align 8, !tbaa !3
  %4 = getelementptr inbounds nuw i8, ptr %0, i64 48
  tail call void @_ZN6google8protobuf2io26CopyingOutputStreamAdaptorC2EPNS1_19CopyingOutputStreamEi(ptr noundef nonnull align 8 dereferenceable(48) %0, ptr noundef nonnull %4, i32 noundef -1)
  store ptr getelementptr inbounds nuw inrange(-16, 56) (i8, ptr @_ZTVN6google8protobuf2io16FileOutputStreamE, i64 16), ptr %0, align 8, !tbaa !3
  store ptr getelementptr inbounds nuw inrange(-16, 24) (i8, ptr @_ZTVN6google8protobuf2io16FileOutputStream23CopyingFileOutputStreamE, i64 16), ptr %4, align 8, !tbaa !3
  %5 = getelementptr inbounds nuw i8, ptr %0, i64 56
  store i32 %1, ptr %5, align 8, !tbaa !22
  %6 = getelementptr inbounds nuw i8, ptr %0, i64 60
  store i8 0, ptr %6, align 4, !tbaa !25
  %7 = getelementptr inbounds nuw i8, ptr %0, i64 61
  store i8 0, ptr %7, align 1, !tbaa !26
  %8 = getelementptr inbounds nuw i8, ptr %0, i64 64
  store i32 0, ptr %8, align 8, !tbaa !27
  ret void
}